target datalayout = "e-m:e-p270:32:32-p271:32:32-p272:64:64-i64:64-i128:128-f80:128-n8:16:32:64-S128"
target triple = "x86_64-pc-linux-gnu"

%"class.base::BasicStringPiece" = type { ptr, i64 }
%"struct.base::CaseInsensitiveCompareASCII" = type { i8 }

; Function Attrs: inlinehint mustprogress nounwind uwtable
define linkonce_odr noundef signext i8 @_ZN4base12ToLowerASCIIEc(i8 noundef signext %0) #7 comdat {
  %2 = alloca i8, align 1
  store i8 %0, ptr %2, align 1, !tbaa !29
  %3 = load i8, ptr %2, align 1, !tbaa !29
  %4 = sext i8 %3 to i32
  %5 = icmp sge i32 %4, 65
  br i1 %5, label %6, label %14

6:                                                ; preds = %1
  %7 = load i8, ptr %2, align 1, !tbaa !29
  %8 = sext i8 %7 to i32
  %9 = icmp sle i32 %8, 90
  br i1 %9, label %10, label %14

10:                                               ; preds = %6
  %11 = load i8, ptr %2, align 1, !tbaa !29
  %12 = sext i8 %11 to i32
  %13 = add nsw i32 %12, 32
  br label %17

14:                                               ; preds = %6, %1
  %15 = load i8, ptr %2, align 1, !tbaa !29
  %16 = sext i8 %15 to i32
  br label %17

17:                                               ; preds = %14, %10
  %18 = phi i32 [ %13, %10 ], [ %16, %14 ]
  %19 = trunc i32 %18 to i8
  ret i8 %19
}

; Function Attrs: mustprogress nounwind uwtable
define linkonce_odr noundef zeroext i1 @_ZNK4base27CaseInsensitiveCompareASCIIIcEclEcc(ptr noundef nonnull align 1 dereferenceable(1) %0, i8 noundef signext %1, i8 noundef signext %2) #0 comdat align 2 {
  %4 = alloca ptr, align 8
  %5 = alloca i8, align 1
  %6 = alloca i8, align 1
  store ptr %0, ptr %4, align 8, !tbaa !200
  store i8 %1, ptr %5, align 1, !tbaa !29
  store i8 %2, ptr %6, align 1, !tbaa !29
  %7 = load i8, ptr %5, align 1, !tbaa !29
  %8 = call noundef signext i8 @_ZN4base12ToLowerASCIIEc(i8 noundef signext %7)
  %9 = sext i8 %8 to i32
  %10 = load i8, ptr %6, align 1, !tbaa !29
  %11 = call noundef signext i8 @_ZN4base12ToLowerASCIIEc(i8 noundef signext %10)
  %12 = sext i8 %11 to i32
  %13 = icmp eq i32 %9, %12
  ret i1 %13
}

; Function Attrs: inlinehint mustprogress uwtable
define linkonce_odr noundef zeroext i1 @_ZSt5equalIPKcS1_N4base27CaseInsensitiveCompareASCIIIcEEEbT_S5_T0_T1_(ptr noundef %0, ptr noundef %1, ptr noundef %2) #8 comdat {
  %4 = alloca i1, align 1
  %5 = alloca %"struct.base::CaseInsensitiveCompareASCII", align 1
  %6 = alloca ptr, align 8
  %7 = alloca ptr, align 8
  %8 = alloca ptr, align 8
  store ptr %0, ptr %6, align 8, !tbaa !18
  store ptr %1, ptr %7, align 8, !tbaa !18
  store ptr %2, ptr %8, align 8, !tbaa !18
  br label %9

9:                                                ; preds = %21, %3
  %10 = load ptr, ptr %6, align 8, !tbaa !18
  %11 = load ptr, ptr %7, align 8, !tbaa !18
  %12 = icmp ne ptr %10, %11
  br i1 %12, label %13, label %26

13:                                               ; preds = %9
  %14 = load ptr, ptr %6, align 8, !tbaa !18
  %15 = load i8, ptr %14, align 1, !tbaa !29
  %16 = load ptr, ptr %8, align 8, !tbaa !18
  %17 = load i8, ptr %16, align 1, !tbaa !29
  %18 = call noundef zeroext i1 @_ZNK4base27CaseInsensitiveCompareASCIIIcEclEcc(ptr noundef nonnull align 1 dereferenceable(1) %5, i8 noundef signext %15, i8 noundef signext %17)
  br i1 %18, label %20, label %19

19:                                               ; preds = %13
  store i1 false, ptr %4, align 1
  br label %27

20:                                               ; preds = %13
  br label %21

21:                                               ; preds = %20
  %22 = load ptr, ptr %6, align 8, !tbaa !18
  %23 = getelementptr inbounds nuw i8, ptr %22, i32 1
  store ptr %23, ptr %6, align 8, !tbaa !18
  %24 = load ptr, ptr %8, align 8, !tbaa !18
  %25 = getelementptr inbounds nuw i8, ptr %24, i32 1
  store ptr %25, ptr %8, align 8, !tbaa !18
  br label %9, !llvm.loop !199

26:                                               ; preds = %9
  store i1 true, ptr %4, align 1
  br label %27

27:                                               ; preds = %26, %19
  %28 = load i1, ptr %4, align 1
  ret i1 %28
}

; Function Attrs: mustprogress nounwind uwtable
define available_externally noundef ptr @_ZNK4base16BasicStringPieceINSt7__cxx1112basic_stringIcSt11char_traitsIcESaIcEEEE3endEv(ptr noundef nonnull align 8 dereferenceable(16) %0) #0 align 2 {
  %2 = alloca ptr, align 8
  store ptr %0, ptr %2, align 8, !tbaa !34
  %3 = load ptr, ptr %2, align 8
  %4 = getelementptr inbounds nuw %"class.base::BasicStringPiece", ptr %3, i32 0, i32 0
  %5 = load ptr, ptr %4, align 8, !tbaa !49
  %6 = getelementptr inbounds nuw %"class.base::BasicStringPiece", ptr %3, i32 0, i32 1
  %7 = load i64, ptr %6, align 8, !tbaa !36
  %8 = getelementptr inbounds nuw i8, ptr %5, i64 %7
  ret ptr %8
}

; Function Attrs: mustprogress nounwind uwtable
define available_externally noundef ptr @_ZNK4base16BasicStringPieceINSt7__cxx1112basic_stringIcSt11char_traitsIcESaIcEEEE5beginEv(ptr noundef nonnull align 8 dereferenceable(16) %0) #0 align 2 {
  %2 = alloca ptr, align 8
  store ptr %0, ptr %2, align 8, !tbaa !34
  %3 = load ptr, ptr %2, align 8
  %4 = getelementptr inbounds nuw %"class.base::BasicStringPiece", ptr %3, i32 0, i32 0
  %5 = load ptr, ptr %4, align 8, !tbaa !49
  ret ptr %5
}

; Function Attrs: mustprogress uwtable
define available_externally { ptr, i64 } @_ZNK4base16BasicStringPieceINSt7__cxx1112basic_stringIcSt11char_traitsIcESaIcEEEE6substrEmm(ptr noundef nonnull align 8 dereferenceable(16) %0, i64 noundef %1, i64 noundef %2) #3 align 2 {
  %4 = alloca %"class.base::BasicStringPiece", align 8
  %5 = alloca ptr, align 8
  %6 = alloca i64, align 8
  %7 = alloca i64, align 8
  store ptr %0, ptr %5, align 8, !tbaa !34
  store i64 %1, ptr %6, align 8, !tbaa !20
  store i64 %2, ptr %7, align 8, !tbaa !20
  %8 = load ptr, ptr %5, align 8
  %9 = load i64, ptr %6, align 8, !tbaa !20
  %10 = load i64, ptr %7, align 8, !tbaa !20
  %11 = call { ptr, i64 } @_ZN4base8internal6substrERKNS_16BasicStringPieceINSt7__cxx1112basic_stringIcSt11char_traitsIcESaIcEEEEEmm(ptr noundef nonnull align 8 dereferenceable(16) %8, i64 noundef %9, i64 noundef %10)
  %12 = getelementptr inbounds nuw { ptr, i64 }, ptr %4, i32 0, i32 0
  %13 = extractvalue { ptr, i64 } %11, 0
  store ptr %13, ptr %12, align 8
  %14 = getelementptr inbounds nuw { ptr, i64 }, ptr %4, i32 0, i32 1
  %15 = extractvalue { ptr, i64 } %11, 1
  store i64 %15, ptr %14, align 8
  %16 = load { ptr, i64 }, ptr %4, align 8
  ret { ptr, i64 } %16
}

; Function Attrs: mustprogress nounwind uwtable
define available_externally noundef i64 @_ZNK4base16BasicStringPieceINSt7__cxx1112basic_stringIcSt11char_traitsIcESaIcEEEE4sizeEv(ptr noundef nonnull align 8 dereferenceable(16) %0) #0 align 2 {
  %2 = alloca ptr, align 8
  store ptr %0, ptr %2, align 8, !tbaa !34
  %3 = load ptr, ptr %2, align 8
  %4 = getelementptr inbounds nuw %"class.base::BasicStringPiece", ptr %3, i32 0, i32 1
  %5 = load i64, ptr %4, align 8, !tbaa !36
  ret i64 %5
}

; Function Attrs: mustprogress uwtable
define linkonce_odr noundef zeroext i1 @_ZN4base11StartsWithTINSt7__cxx1112basic_stringIcSt11char_traitsIcESaIcEEEEEbNS_16BasicStringPieceIT_EES9_NS_11CompareCaseE(ptr %0, i64 %1, ptr %2, i64 %3, i32 noundef %4) #3 comdat {
  %6 = alloca i1, align 1
  %7 = alloca %"class.base::BasicStringPiece", align 8
  %8 = alloca %"class.base::BasicStringPiece", align 8
  %9 = alloca i32, align 4
  %10 = alloca %"class.base::BasicStringPiece", align 8
  %11 = alloca i32, align 4
  %12 = getelementptr inbounds nuw { ptr, i64 }, ptr %7, i32 0, i32 0
  store ptr %0, ptr %12, align 8
  %13 = getelementptr inbounds nuw { ptr, i64 }, ptr %7, i32 0, i32 1
  store i64 %1, ptr %13, align 8
  %14 = getelementptr inbounds nuw { ptr, i64 }, ptr %8, i32 0, i32 0
  store ptr %2, ptr %14, align 8
  %15 = getelementptr inbounds nuw { ptr, i64 }, ptr %8, i32 0, i32 1
  store i64 %3, ptr %15, align 8
  store i32 %4, ptr %9, align 4, !tbaa !86
  %16 = call noundef i64 @_ZNK4base16BasicStringPieceINSt7__cxx1112basic_stringIcSt11char_traitsIcESaIcEEEE4sizeEv(ptr noundef nonnull align 8 dereferenceable(16) %8)
  %17 = call noundef i64 @_ZNK4base16BasicStringPieceINSt7__cxx1112basic_stringIcSt11char_traitsIcESaIcEEEE4sizeEv(ptr noundef nonnull align 8 dereferenceable(16) %7)
  %18 = icmp ugt i64 %16, %17
  br i1 %18, label %19, label %20

19:                                               ; preds = %5
  store i1 false, ptr %6, align 1
  br label %37

20:                                               ; preds = %5
  call void @llvm.lifetime.start.p0(i64 16, ptr %10) #17
  %21 = call noundef i64 @_ZNK4base16BasicStringPieceINSt7__cxx1112basic_stringIcSt11char_traitsIcESaIcEEEE4sizeEv(ptr noundef nonnull align 8 dereferenceable(16) %8)
  %22 = call { ptr, i64 } @_ZNK4base16BasicStringPieceINSt7__cxx1112basic_stringIcSt11char_traitsIcESaIcEEEE6substrEmm(ptr noundef nonnull align 8 dereferenceable(16) %7, i64 noundef 0, i64 noundef %21)
  %23 = getelementptr inbounds nuw { ptr, i64 }, ptr %10, i32 0, i32 0
  %24 = extractvalue { ptr, i64 } %22, 0
  store ptr %24, ptr %23, align 8
  %25 = getelementptr inbounds nuw { ptr, i64 }, ptr %10, i32 0, i32 1
  %26 = extractvalue { ptr, i64 } %22, 1
  store i64 %26, ptr %25, align 8
  %27 = load i32, ptr %9, align 4, !tbaa !86
  switch i32 %27, label %35 [
    i32 0, label %28
    i32 1, label %30
  ]

28:                                               ; preds = %20
  %29 = call noundef zeroext i1 @_ZN4baseeqERKNS_16BasicStringPieceINSt7__cxx1112basic_stringIcSt11char_traitsIcESaIcEEEEES9_(ptr noundef nonnull align 8 dereferenceable(16) %10, ptr noundef nonnull align 8 dereferenceable(16) %8)
  store i1 %29, ptr %6, align 1
  store i32 1, ptr %11, align 4
  br label %36

30:                                               ; preds = %20
  %31 = call noundef ptr @_ZNK4base16BasicStringPieceINSt7__cxx1112basic_stringIcSt11char_traitsIcESaIcEEEE5beginEv(ptr noundef nonnull align 8 dereferenceable(16) %8)
  %32 = call noundef ptr @_ZNK4base16BasicStringPieceINSt7__cxx1112basic_stringIcSt11char_traitsIcESaIcEEEE3endEv(ptr noundef nonnull align 8 dereferenceable(16) %8)
  %33 = call noundef ptr @_ZNK4base16BasicStringPieceINSt7__cxx1112basic_stringIcSt11char_traitsIcESaIcEEEE5beginEv(ptr noundef nonnull align 8 dereferenceable(16) %10)
  %34 = call noundef zeroext i1 @_ZSt5equalIPKcS1_N4base27CaseInsensitiveCompareASCIIIcEEEbT_S5_T0_T1_(ptr noundef %31, ptr noundef %32, ptr noundef %33)
  store i1 %34, ptr %6, align 1
  store i32 1, ptr %11, align 4
  br label %36

35:                                               ; preds = %20
  store i1 false, ptr %6, align 1
  store i32 1, ptr %11, align 4
  br label %36

36:                                               ; preds = %35, %30, %28
  call void @llvm.lifetime.end.p0(i64 16, ptr %10) #17
  br label %37

37:                                               ; preds = %36, %19
  %38 = load i1, ptr %6, align 1
  ret i1 %38
}

; Function Attrs: mustprogress uwtable
define noundef zeroext i1 @_ZN4base10StartsWithENS_16BasicStringPieceINSt7__cxx1112basic_stringIcSt11char_traitsIcESaIcEEEEES7_NS_11CompareCaseE(ptr %0, i64 %1, ptr %2, i64 %3, i32 noundef %4) #3 {
  %6 = alloca %"class.base::BasicStringPiece", align 8
  %7 = alloca %"class.base::BasicStringPiece", align 8
  %8 = alloca i32, align 4
  %9 = alloca %"class.base::BasicStringPiece", align 8
  %10 = alloca %"class.base::BasicStringPiece", align 8
  %11 = getelementptr inbounds nuw { ptr, i64 }, ptr %6, i32 0, i32 0
  store ptr %0, ptr %11, align 8
  %12 = getelementptr inbounds nuw { ptr, i64 }, ptr %6, i32 0, i32 1
  store i64 %1, ptr %12, align 8
  %13 = getelementptr inbounds nuw { ptr, i64 }, ptr %7, i32 0, i32 0
  store ptr %2, ptr %13, align 8
  %14 = getelementptr inbounds nuw { ptr, i64 }, ptr %7, i32 0, i32 1
  store i64 %3, ptr %14, align 8
  store i32 %4, ptr %8, align 4, !tbaa !86
  call void @llvm.memcpy.p0.p0.i64(ptr align 8 %9, ptr align 8 %6, i64 16, i1 false), !tbaa.struct !17
  call void @llvm.memcpy.p0.p0.i64(ptr align 8 %10, ptr align 8 %7, i64 16, i1 false), !tbaa.struct !17
  %15 = load i32, ptr %8, align 4, !tbaa !86
  %16 = getelementptr inbounds nuw { ptr, i64 }, ptr %9, i32 0, i32 0
  %17 = load ptr, ptr %16, align 8
  %18 = getelementptr inbounds nuw { ptr, i64 }, ptr %9, i32 0, i32 1
  %19 = load i64, ptr %18, align 8
  %20 = getelementptr inbounds nuw { ptr, i64 }, ptr %10, i32 0, i32 0
  %21 = load ptr, ptr %20, align 8
  %22 = getelementptr inbounds nuw { ptr, i64 }, ptr %10, i32 0, i32 1
  %23 = load i64, ptr %22, align 8
  %24 = call noundef zeroext i1 @_ZN4base11StartsWithTINSt7__cxx1112basic_stringIcSt11char_traitsIcESaIcEEEEEbNS_16BasicStringPieceIT_EES9_NS_11CompareCaseE(ptr %17, i64 %19, ptr %21, i64 %23, i32 noundef %15)
  ret i1 %24
}